; Function Attrs: alwaysinline norecurse nounwind ssp uwtable
define internal void @_ZN6open3d4core6kernel18CPUReductionEngine28LaunchReductionKernelTwoPassIhPFhhhEEEvRKNS0_7IndexerET0_T_.omp_outlined(ptr noalias noundef readonly captures(none) %0, ptr noalias readnone captures(none) %1, ptr noundef nonnull readonly align 8 captures(none) dereferenceable(8) %2, ptr noundef nonnull readonly align 8 captures(none) dereferenceable(8) %3, ptr noundef nonnull readonly align 8 captures(none) dereferenceable(8) %4, ptr noundef nonnull readonly align 1 captures(none) dereferenceable(1) %5, ptr noundef nonnull readonly align 8 captures(none) dereferenceable(842) %6, ptr noundef nonnull readonly align 8 captures(none) dereferenceable(8) %7, ptr noundef nonnull readonly align 8 captures(none) dereferenceable(24) %8) #26 personality ptr @__gxx_personality_v0 {
  %10 = alloca i64, align 8
  %11 = alloca i64, align 8
  %12 = alloca i64, align 8
  %13 = alloca i32, align 4
  %14 = load i64, ptr %2, align 8, !tbaa !62
  %15 = icmp sgt i64 %14, 0
  br i1 %15, label %16, label %67

16:                                               ; preds = %9
  %17 = add nsw i64 %14, -1
  call void @llvm.lifetime.start.p0(i64 8, ptr nonnull %10) #27
  store i64 0, ptr %10, align 8, !tbaa !62
  call void @llvm.lifetime.start.p0(i64 8, ptr nonnull %11) #27
  store i64 %17, ptr %11, align 8, !tbaa !62
  call void @llvm.lifetime.start.p0(i64 8, ptr nonnull %12) #27
  store i64 1, ptr %12, align 8, !tbaa !62
  call void @llvm.lifetime.start.p0(i64 4, ptr nonnull %13) #27
  store i32 0, ptr %13, align 4, !tbaa !48
  %18 = load i32, ptr %0, align 4, !tbaa !48
  call void @__kmpc_for_static_init_8(ptr nonnull @1, i32 %18, i32 34, ptr nonnull %13, ptr nonnull %10, ptr nonnull %11, ptr nonnull %12, i64 1, i64 1)
  %19 = load i64, ptr %11, align 8, !tbaa !62
  %20 = call i64 @llvm.smin.i64(i64 %19, i64 %17)
  store i64 %20, ptr %11, align 8, !tbaa !62
  %21 = load i64, ptr %10, align 8, !tbaa !62
  %.not35 = icmp sgt i64 %21, %20
  br i1 %.not35, label %._crit_edge39, label %.lr.ph38

.lr.ph38:                                         ; preds = %16
  %22 = getelementptr inbounds nuw i8, ptr %6, i64 16
  %23 = getelementptr inbounds nuw i8, ptr %6, i64 744
  %24 = getelementptr inbounds nuw i8, ptr %6, i64 832
  %25 = getelementptr inbounds nuw i8, ptr %6, i64 792
  %26 = getelementptr inbounds nuw i8, ptr %6, i64 80
  %27 = getelementptr inbounds nuw i8, ptr %6, i64 32
  br label %28

28:                                               ; preds = %.lr.ph38, %._crit_edge
  %.036 = phi i64 [ %21, %.lr.ph38 ], [ %38, %._crit_edge ]
  %29 = load i64, ptr %3, align 8, !tbaa !62
  %30 = mul nsw i64 %29, %.036
  %31 = add nsw i64 %30, %29
  %32 = load i64, ptr %4, align 8, !tbaa !62
  %.sroa.speculated = call i64 @llvm.smin.i64(i64 %32, i64 %31)
  %33 = load i8, ptr %5, align 1, !tbaa !47
  %34 = icmp slt i64 %30, %.sroa.speculated
  br i1 %34, label %.lr.ph.preheader, label %._crit_edge

.lr.ph.preheader:                                 ; preds = %28
  %35 = icmp sgt i64 %30, -1
  call void @llvm.assume(i1 %35)
  br label %.lr.ph

._crit_edge:                                      ; preds = %64, %28
  %.029.lcssa = phi i8 [ %33, %28 ], [ %63, %64 ]
  %36 = load ptr, ptr %8, align 8, !tbaa !882
  %37 = getelementptr inbounds nuw i8, ptr %36, i64 %.036
  store i8 %.029.lcssa, ptr %37, align 1, !tbaa !47
  %38 = add nsw i64 %.036, 1
  %39 = load i64, ptr %11, align 8, !tbaa !62
  %.not.not = icmp slt i64 %.036, %39
  br i1 %.not.not, label %28, label %._crit_edge39

.lr.ph:                                           ; preds = %.lr.ph.preheader, %64
  %.02833 = phi i64 [ %65, %64 ], [ %30, %.lr.ph.preheader ]
  %.02932 = phi i8 [ %63, %64 ], [ %33, %.lr.ph.preheader ]
  %40 = load i64, ptr %6, align 8
  %.not.i = icmp sgt i64 %40, 0
  call void @llvm.assume(i1 %.not.i)
  %41 = load i8, ptr %23, align 8, !tbaa !63, !range !117, !noundef !118
  %42 = trunc nuw i8 %41 to i1
  br i1 %42, label %45, label %.preheader.i.i

.preheader.i.i:                                   ; preds = %.lr.ph
  %43 = load i64, ptr %24, align 8, !tbaa !119
  %44 = icmp sgt i64 %43, 0
  br i1 %44, label %.lr.ph.i.i, label %._crit_edge.i.i

45:                                               ; preds = %.lr.ph
  %46 = load ptr, ptr %22, align 8, !tbaa !121
  %47 = load i64, ptr %27, align 8, !tbaa !123
  %48 = mul nsw i64 %47, %.02833
  %49 = getelementptr inbounds i8, ptr %46, i64 %48
  br label %_ZNK6open3d4core7Indexer11GetInputPtrEll.exit

._crit_edge.i.i:                                  ; preds = %.lr.ph.i.i, %.preheader.i.i
  %.017.lcssa.i.i = phi i64 [ 0, %.preheader.i.i ], [ %58, %.lr.ph.i.i ]
  %50 = load ptr, ptr %22, align 8, !tbaa !121
  %51 = getelementptr inbounds i8, ptr %50, i64 %.017.lcssa.i.i
  br label %_ZNK6open3d4core7Indexer11GetInputPtrEll.exit

.lr.ph.i.i:                                       ; preds = %.preheader.i.i, %.lr.ph.i.i
  %.023.i.i = phi i64 [ %60, %.lr.ph.i.i ], [ 0, %.preheader.i.i ]
  %.01722.i.i = phi i64 [ %58, %.lr.ph.i.i ], [ 0, %.preheader.i.i ]
  %.01821.i.i = phi i64 [ %59, %.lr.ph.i.i ], [ %.02833, %.preheader.i.i ]
  %52 = getelementptr inbounds nuw [5 x i64], ptr %25, i64 0, i64 %.023.i.i
  %53 = load i64, ptr %52, align 8, !tbaa !62
  %54 = sdiv i64 %.01821.i.i, %53
  %55 = getelementptr inbounds nuw [5 x i64], ptr %26, i64 0, i64 %.023.i.i
  %56 = load i64, ptr %55, align 8, !tbaa !62
  %57 = mul nsw i64 %56, %54
  %58 = add nsw i64 %57, %.01722.i.i
  %59 = srem i64 %.01821.i.i, %53
  %60 = add nuw nsw i64 %.023.i.i, 1
  %exitcond.not.i.i = icmp eq i64 %60, %43
  br i1 %exitcond.not.i.i, label %._crit_edge.i.i, label %.lr.ph.i.i, !llvm.loop !124

_ZNK6open3d4core7Indexer11GetInputPtrEll.exit:    ; preds = %._crit_edge.i.i, %45
  %.0.i = phi ptr [ %49, %45 ], [ %51, %._crit_edge.i.i ]
  %61 = load ptr, ptr %7, align 8, !tbaa !66
  %62 = load i8, ptr %.0.i, align 1, !tbaa !47
  %63 = invoke noundef zeroext i8 %61(i8 noundef zeroext %62, i8 noundef zeroext %.02932)
          to label %64 unwind label %68

64:                                               ; preds = %_ZNK6open3d4core7Indexer11GetInputPtrEll.exit
  %65 = add nuw nsw i64 %.02833, 1
  %66 = icmp slt i64 %65, %.sroa.speculated
  br i1 %66, label %.lr.ph, label %._crit_edge, !llvm.loop !1667

._crit_edge39:                                    ; preds = %._crit_edge, %16
  call void @__kmpc_for_static_fini(ptr nonnull @1, i32 %18)
  call void @llvm.lifetime.end.p0(i64 4, ptr nonnull %13) #27
  call void @llvm.lifetime.end.p0(i64 8, ptr nonnull %12) #27
  call void @llvm.lifetime.end.p0(i64 8, ptr nonnull %11) #27
  call void @llvm.lifetime.end.p0(i64 8, ptr nonnull %10) #27
  br label %67

67:                                               ; preds = %._crit_edge39, %9
  ret void

68:                                               ; preds = %_ZNK6open3d4core7Indexer11GetInputPtrEll.exit
  %69 = landingpad { ptr, i32 }
          catch ptr null
  %70 = extractvalue { ptr, i32 } %69, 0
  call void @__clang_call_terminate(ptr %70) #37
  unreachable
}